target datalayout = "e-m:e-p270:32:32-p271:32:32-p272:64:64-i64:64-i128:128-f80:128-n8:16:32:64-S128"
target triple = "x86_64-pc-linux-gnu"

%struct.stbi__write_context = type { ptr, ptr, [64 x i8], i32 }

; Function Attrs: nounwind uwtable
define void @stbiw__write_flush(ptr noundef %0) #0 {
  %2 = alloca ptr, align 8
  store ptr %0, ptr %2, align 8, !tbaa !7
  %3 = load ptr, ptr %2, align 8, !tbaa !7
  %4 = getelementptr inbounds nuw %struct.stbi__write_context, ptr %3, i32 0, i32 3
  %5 = load i32, ptr %4, align 8, !tbaa !21
  %6 = icmp ne i32 %5, 0
  br i1 %6, label %7, label %21

7:                                                ; preds = %1
  %8 = load ptr, ptr %2, align 8, !tbaa !7
  %9 = getelementptr inbounds nuw %struct.stbi__write_context, ptr %8, i32 0, i32 0
  %10 = load ptr, ptr %9, align 8, !tbaa !9
  %11 = load ptr, ptr %2, align 8, !tbaa !7
  %12 = getelementptr inbounds nuw %struct.stbi__write_context, ptr %11, i32 0, i32 1
  %13 = load ptr, ptr %12, align 8, !tbaa !11
  %14 = load ptr, ptr %2, align 8, !tbaa !7
  %15 = getelementptr inbounds nuw %struct.stbi__write_context, ptr %14, i32 0, i32 2
  %16 = load ptr, ptr %2, align 8, !tbaa !7
  %17 = getelementptr inbounds nuw %struct.stbi__write_context, ptr %16, i32 0, i32 3
  %18 = load i32, ptr %17, align 8, !tbaa !21
  call void %10(ptr noundef %13, ptr noundef %15, i32 noundef %18)
  %19 = load ptr, ptr %2, align 8, !tbaa !7
  %20 = getelementptr inbounds nuw %struct.stbi__write_context, ptr %19, i32 0, i32 3
  store i32 0, ptr %20, align 8, !tbaa !21
  br label %21

21:                                               ; preds = %7, %1
  ret void
}

; Function Attrs: nounwind uwtable
define void @stbiw__write3(ptr noundef %0, i8 noundef zeroext %1, i8 noundef zeroext %2, i8 noundef zeroext %3) #0 {
  %5 = alloca ptr, align 8
  %6 = alloca i8, align 1
  %7 = alloca i8, align 1
  %8 = alloca i8, align 1
  %9 = alloca i32, align 4
  store ptr %0, ptr %5, align 8, !tbaa !7
  store i8 %1, ptr %6, align 1, !tbaa !18
  store i8 %2, ptr %7, align 1, !tbaa !18
  store i8 %3, ptr %8, align 1, !tbaa !18
  call void @llvm.lifetime.start.p0(i64 4, ptr %9) #11
  %10 = load ptr, ptr %5, align 8, !tbaa !7
  %11 = getelementptr inbounds nuw %struct.stbi__write_context, ptr %10, i32 0, i32 3
  %12 = load i32, ptr %11, align 8, !tbaa !21
  %13 = sext i32 %12 to i64
  %14 = add i64 %13, 3
  %15 = icmp ugt i64 %14, 64
  br i1 %15, label %16, label %18

16:                                               ; preds = %4
  %17 = load ptr, ptr %5, align 8, !tbaa !7
  call void @stbiw__write_flush(ptr noundef %17)
  br label %18

18:                                               ; preds = %16, %4
  %19 = load ptr, ptr %5, align 8, !tbaa !7
  %20 = getelementptr inbounds nuw %struct.stbi__write_context, ptr %19, i32 0, i32 3
  %21 = load i32, ptr %20, align 8, !tbaa !21
  store i32 %21, ptr %9, align 4, !tbaa !3
  %22 = load i32, ptr %9, align 4, !tbaa !3
  %23 = add nsw i32 %22, 3
  %24 = load ptr, ptr %5, align 8, !tbaa !7
  %25 = getelementptr inbounds nuw %struct.stbi__write_context, ptr %24, i32 0, i32 3
  store i32 %23, ptr %25, align 8, !tbaa !21
  %26 = load i8, ptr %6, align 1, !tbaa !18
  %27 = load ptr, ptr %5, align 8, !tbaa !7
  %28 = getelementptr inbounds nuw %struct.stbi__write_context, ptr %27, i32 0, i32 2
  %29 = load i32, ptr %9, align 4, !tbaa !3
  %30 = add nsw i32 %29, 0
  %31 = sext i32 %30 to i64
  %32 = getelementptr inbounds [64 x i8], ptr %28, i64 0, i64 %31
  store i8 %26, ptr %32, align 1, !tbaa !18
  %33 = load i8, ptr %7, align 1, !tbaa !18
  %34 = load ptr, ptr %5, align 8, !tbaa !7
  %35 = getelementptr inbounds nuw %struct.stbi__write_context, ptr %34, i32 0, i32 2
  %36 = load i32, ptr %9, align 4, !tbaa !3
  %37 = add nsw i32 %36, 1
  %38 = sext i32 %37 to i64
  %39 = getelementptr inbounds [64 x i8], ptr %35, i64 0, i64 %38
  store i8 %33, ptr %39, align 1, !tbaa !18
  %40 = load i8, ptr %8, align 1, !tbaa !18
  %41 = load ptr, ptr %5, align 8, !tbaa !7
  %42 = getelementptr inbounds nuw %struct.stbi__write_context, ptr %41, i32 0, i32 2
  %43 = load i32, ptr %9, align 4, !tbaa !3
  %44 = add nsw i32 %43, 2
  %45 = sext i32 %44 to i64
  %46 = getelementptr inbounds [64 x i8], ptr %42, i64 0, i64 %45
  store i8 %40, ptr %46, align 1, !tbaa !18
  call void @llvm.lifetime.end.p0(i64 4, ptr %9) #11
  ret void
}