; Function Attrs: nounwind uwtable
define void @stbiw__write3(ptr noundef %0, i8 noundef zeroext %1, i8 noundef zeroext %2, i8 noundef zeroext %3) local_unnamed_addr #5 {
  %5 = getelementptr inbounds nuw i8, ptr %0, i64 80
  %6 = load i32, ptr %5, align 8, !tbaa !14
  %7 = sext i32 %6 to i64
  %8 = add nsw i64 %7, 3
  %9 = icmp ult i64 %8, 65
  br i1 %9, label %stbiw__write_flush.exit, label %10

10:                                               ; preds = %4
  %11 = load ptr, ptr %0, align 8, !tbaa !7
  %12 = getelementptr inbounds nuw i8, ptr %0, i64 8
  %13 = load ptr, ptr %12, align 8, !tbaa !10
  %14 = getelementptr inbounds nuw i8, ptr %0, i64 16
  tail call void %11(ptr noundef %13, ptr noundef nonnull %14, i32 noundef %6) #26
  br label %stbiw__write_flush.exit

stbiw__write_flush.exit:                          ; preds = %10, %4
  %15 = phi i32 [ 0, %10 ], [ %6, %4 ]
  %16 = add nsw i32 %15, 3
  store i32 %16, ptr %5, align 8, !tbaa !14
  %17 = getelementptr inbounds nuw i8, ptr %0, i64 16
  %18 = sext i32 %15 to i64
  %19 = getelementptr inbounds [64 x i8], ptr %17, i64 0, i64 %18
  store i8 %1, ptr %19, align 1, !tbaa !11
  %20 = add nsw i32 %15, 1
  %21 = sext i32 %20 to i64
  %22 = getelementptr inbounds [64 x i8], ptr %17, i64 0, i64 %21
  store i8 %2, ptr %22, align 1, !tbaa !11
  %23 = add nsw i32 %15, 2
  %24 = sext i32 %23 to i64
  %25 = getelementptr inbounds [64 x i8], ptr %17, i64 0, i64 %24
  store i8 %3, ptr %25, align 1, !tbaa !11
  ret void
}